; Function Attrs: inlinehint mustprogress nounwind uwtable
define internal void @_ZN6google8protobuf12_GLOBAL__N_124FieldValuePrinterWrapperD2Ev(ptr noundef nonnull align 8 captures(none) dereferenceable(16) initializes((0, 8)) %0) unnamed_addr #5 align 2 personality ptr @__gxx_personality_v0 {
  store ptr getelementptr inbounds nuw inrange(-16, 136) (i8, ptr @_ZTVN6google8protobuf12_GLOBAL__N_124FieldValuePrinterWrapperE, i64 16), ptr %0, align 8, !tbaa !24
  %2 = getelementptr inbounds nuw i8, ptr %0, i64 8
  %3 = load ptr, ptr %2, align 8, !tbaa !214
  %.not.i = icmp eq ptr %3, null
  br i1 %.not.i, label %_ZNSt10unique_ptrIKN6google8protobuf10TextFormat17FieldValuePrinterESt14default_deleteIS4_EED2Ev.exit, label %_ZNKSt14default_deleteIKN6google8protobuf10TextFormat17FieldValuePrinterEEclEPS4_.exit.i

_ZNKSt14default_deleteIKN6google8protobuf10TextFormat17FieldValuePrinterEEclEPS4_.exit.i: ; preds = %1
  %4 = load ptr, ptr %3, align 8, !tbaa !24
  %5 = getelementptr inbounds nuw i8, ptr %4, i64 8
  %6 = load ptr, ptr %5, align 8
  tail call void %6(ptr noundef nonnull align 8 dereferenceable(16) %3) #31
  br label %_ZNSt10unique_ptrIKN6google8protobuf10TextFormat17FieldValuePrinterESt14default_deleteIS4_EED2Ev.exit

_ZNSt10unique_ptrIKN6google8protobuf10TextFormat17FieldValuePrinterESt14default_deleteIS4_EED2Ev.exit: ; preds = %1, %_ZNKSt14default_deleteIKN6google8protobuf10TextFormat17FieldValuePrinterEEclEPS4_.exit.i
  store ptr null, ptr %2, align 8, !tbaa !214
  ret void
}